target datalayout = "e-m:e-p270:32:32-p271:32:32-p272:64:64-i64:64-i128:128-f80:128-n8:16:32:64-S128"
target triple = "x86_64-pc-linux-gnu"

%"class.icu_77::UnicodeString" = type { %"class.icu_77::Replaceable", %"union.icu_77::UnicodeString::StackBufferOrFields" }
%"class.icu_77::Replaceable" = type { %"class.icu_77::UObject" }
%"class.icu_77::UObject" = type { ptr }
%"union.icu_77::UnicodeString::StackBufferOrFields" = type { %struct.anon.0, [32 x i8] }
%struct.anon.0 = type { i16, i32, i32, ptr }
%"class.icu_77::DateIntervalFormat" = type <{ %"class.icu_77::Format", ptr, ptr, ptr, ptr, %"class.icu_77::Locale", %"class.icu_77::UnicodeString", [9 x %"struct.icu_77::DateIntervalFormat::PatternInfo"], ptr, ptr, ptr, i32, [4 x i8] }>
%"class.icu_77::Format" = type { %"class.icu_77::UObject", ptr, ptr }
%"class.icu_77::Locale" = type <{ %"class.icu_77::UObject", [12 x i8], [6 x i8], [4 x i8], [2 x i8], i32, [4 x i8], ptr, [157 x i8], [3 x i8], ptr, i8, [7 x i8] }>
%"struct.icu_77::DateIntervalFormat::PatternInfo" = type <{ %"class.icu_77::UnicodeString", %"class.icu_77::UnicodeString", i8, [7 x i8] }>

; Function Attrs: inlinehint mustprogress nounwind uwtable
define linkonce_odr void @_ZN6icu_7718DateIntervalFormat11PatternInfoD2Ev(ptr noundef nonnull align 8 dereferenceable(129) %0) unnamed_addr #2 comdat align 2 {
  %2 = alloca ptr, align 8
  store ptr %0, ptr %2, align 8, !tbaa !66
  %3 = load ptr, ptr %2, align 8
  %4 = getelementptr inbounds nuw %"struct.icu_77::DateIntervalFormat::PatternInfo", ptr %3, i32 0, i32 1
  call void @_ZN6icu_7713UnicodeStringD1Ev(ptr noundef nonnull align 8 dereferenceable(64) %4) #12
  %5 = getelementptr inbounds nuw %"struct.icu_77::DateIntervalFormat::PatternInfo", ptr %3, i32 0, i32 0
  call void @_ZN6icu_7713UnicodeStringD1Ev(ptr noundef nonnull align 8 dereferenceable(64) %5) #12
  ret void
}

; Function Attrs: mustprogress nounwind uwtable
define void @_ZN6icu_7718DateIntervalFormatD2Ev(ptr noundef nonnull align 8 dereferenceable(1596) %0) unnamed_addr #0 align 2 {
  %2 = alloca ptr, align 8
  store ptr %0, ptr %2, align 8, !tbaa !39
  %3 = load ptr, ptr %2, align 8
  store ptr getelementptr inbounds inrange(-16, 104) ({ [15 x ptr] }, ptr @_ZTVN6icu_7718DateIntervalFormatE, i32 0, i32 0, i32 2), ptr %3, align 8, !tbaa !27
  %4 = getelementptr inbounds nuw %"class.icu_77::DateIntervalFormat", ptr %3, i32 0, i32 1
  %5 = load ptr, ptr %4, align 8, !tbaa !47
  %6 = icmp eq ptr %5, null
  br i1 %6, label %8, label %7

7:                                                ; preds = %1
  call void @_ZN6icu_7716DateIntervalInfoD1Ev(ptr noundef nonnull align 8 dereferenceable(88) %5) #12
  call void @_ZN6icu_777UMemorydlEPv(ptr noundef %5) #12
  br label %8

8:                                                ; preds = %7, %1
  %9 = getelementptr inbounds nuw %"class.icu_77::DateIntervalFormat", ptr %3, i32 0, i32 2
  %10 = load ptr, ptr %9, align 8, !tbaa !58
  %11 = icmp eq ptr %10, null
  br i1 %11, label %16, label %12

12:                                               ; preds = %8
  %13 = load ptr, ptr %10, align 8, !tbaa !27
  %14 = getelementptr inbounds ptr, ptr %13, i64 1
  %15 = load ptr, ptr %14, align 8
  call void %15(ptr noundef nonnull align 8 dereferenceable(528) %10) #12
  br label %16

16:                                               ; preds = %12, %8
  %17 = getelementptr inbounds nuw %"class.icu_77::DateIntervalFormat", ptr %3, i32 0, i32 3
  %18 = load ptr, ptr %17, align 8, !tbaa !59
  %19 = icmp eq ptr %18, null
  br i1 %19, label %24, label %20

20:                                               ; preds = %16
  %21 = load ptr, ptr %18, align 8, !tbaa !27
  %22 = getelementptr inbounds ptr, ptr %21, i64 1
  %23 = load ptr, ptr %22, align 8
  call void %23(ptr noundef nonnull align 8 dereferenceable(192) %18) #12
  br label %24

24:                                               ; preds = %20, %16
  %25 = getelementptr inbounds nuw %"class.icu_77::DateIntervalFormat", ptr %3, i32 0, i32 4
  %26 = load ptr, ptr %25, align 8, !tbaa !60
  %27 = icmp eq ptr %26, null
  br i1 %27, label %32, label %28

28:                                               ; preds = %24
  %29 = load ptr, ptr %26, align 8, !tbaa !27
  %30 = getelementptr inbounds ptr, ptr %29, i64 1
  %31 = load ptr, ptr %30, align 8
  call void %31(ptr noundef nonnull align 8 dereferenceable(192) %26) #12
  br label %32

32:                                               ; preds = %28, %24
  %33 = getelementptr inbounds nuw %"class.icu_77::DateIntervalFormat", ptr %3, i32 0, i32 8
  %34 = load ptr, ptr %33, align 8, !tbaa !61
  %35 = icmp eq ptr %34, null
  br i1 %35, label %40, label %36

36:                                               ; preds = %32
  %37 = load ptr, ptr %34, align 8, !tbaa !27
  %38 = getelementptr inbounds ptr, ptr %37, i64 1
  %39 = load ptr, ptr %38, align 8
  call void %39(ptr noundef nonnull align 8 dereferenceable(64) %34) #12
  br label %40

40:                                               ; preds = %36, %32
  %41 = getelementptr inbounds nuw %"class.icu_77::DateIntervalFormat", ptr %3, i32 0, i32 9
  %42 = load ptr, ptr %41, align 8, !tbaa !62
  %43 = icmp eq ptr %42, null
  br i1 %43, label %48, label %44

44:                                               ; preds = %40
  %45 = load ptr, ptr %42, align 8, !tbaa !27
  %46 = getelementptr inbounds ptr, ptr %45, i64 1
  %47 = load ptr, ptr %46, align 8
  call void %47(ptr noundef nonnull align 8 dereferenceable(64) %42) #12
  br label %48

48:                                               ; preds = %44, %40
  %49 = getelementptr inbounds nuw %"class.icu_77::DateIntervalFormat", ptr %3, i32 0, i32 10
  %50 = load ptr, ptr %49, align 8, !tbaa !63
  %51 = icmp eq ptr %50, null
  br i1 %51, label %56, label %52

52:                                               ; preds = %48
  %53 = load ptr, ptr %50, align 8, !tbaa !27
  %54 = getelementptr inbounds ptr, ptr %53, i64 1
  %55 = load ptr, ptr %54, align 8
  call void %55(ptr noundef nonnull align 8 dereferenceable(64) %50) #12
  br label %56

56:                                               ; preds = %52, %48
  %57 = getelementptr inbounds nuw %"class.icu_77::DateIntervalFormat", ptr %3, i32 0, i32 7
  %58 = getelementptr inbounds [9 x %"struct.icu_77::DateIntervalFormat::PatternInfo"], ptr %57, i32 0, i32 0
  %59 = getelementptr inbounds %"struct.icu_77::DateIntervalFormat::PatternInfo", ptr %58, i64 9
  br label %60

60:                                               ; preds = %60, %56
  %61 = phi ptr [ %59, %56 ], [ %62, %60 ]
  %62 = getelementptr inbounds %"struct.icu_77::DateIntervalFormat::PatternInfo", ptr %61, i64 -1
  call void @_ZN6icu_7718DateIntervalFormat11PatternInfoD2Ev(ptr noundef nonnull align 8 dereferenceable(129) %62) #12
  %63 = icmp eq ptr %62, %58
  br i1 %63, label %64, label %60

64:                                               ; preds = %60
  %65 = getelementptr inbounds nuw %"class.icu_77::DateIntervalFormat", ptr %3, i32 0, i32 6
  call void @_ZN6icu_7713UnicodeStringD1Ev(ptr noundef nonnull align 8 dereferenceable(64) %65) #12
  %66 = getelementptr inbounds nuw %"class.icu_77::DateIntervalFormat", ptr %3, i32 0, i32 5
  call void @_ZN6icu_776LocaleD1Ev(ptr noundef nonnull align 8 dereferenceable(217) %66) #12
  call void @_ZN6icu_776FormatD2Ev(ptr noundef nonnull align 8 dereferenceable(24) %3) #12
  ret void
}