; Function Attrs: mustprogress nounwind uwtable
define void @_ZN6icu_7718DateIntervalFormatD2Ev(ptr noundef nonnull align 8 dereferenceable(1596) initializes((0, 8)) %0) unnamed_addr #0 align 2 {
  store ptr getelementptr inbounds nuw inrange(-16, 104) (i8, ptr @_ZTVN6icu_7718DateIntervalFormatE, i64 16), ptr %0, align 8, !tbaa !15
  %2 = getelementptr inbounds nuw i8, ptr %0, i64 24
  %3 = load ptr, ptr %2, align 8, !tbaa !49
  %4 = icmp eq ptr %3, null
  br i1 %4, label %6, label %5

5:                                                ; preds = %1
  tail call void @_ZN6icu_7716DateIntervalInfoD1Ev(ptr noundef nonnull align 8 dereferenceable(88) %3) #19
  tail call void @_ZN6icu_777UMemorydlEPv(ptr noundef nonnull %3) #19
  br label %6

6:                                                ; preds = %5, %1
  %7 = getelementptr inbounds nuw i8, ptr %0, i64 32
  %8 = load ptr, ptr %7, align 8, !tbaa !48
  %9 = icmp eq ptr %8, null
  br i1 %9, label %14, label %10

10:                                               ; preds = %6
  %11 = load ptr, ptr %8, align 8, !tbaa !15
  %12 = getelementptr inbounds nuw i8, ptr %11, i64 8
  %13 = load ptr, ptr %12, align 8
  tail call void %13(ptr noundef nonnull align 8 dereferenceable(528) %8) #19
  br label %14

14:                                               ; preds = %10, %6
  %15 = getelementptr inbounds nuw i8, ptr %0, i64 40
  %16 = load ptr, ptr %15, align 8, !tbaa !50
  %17 = icmp eq ptr %16, null
  br i1 %17, label %22, label %18

18:                                               ; preds = %14
  %19 = load ptr, ptr %16, align 8, !tbaa !15
  %20 = getelementptr inbounds nuw i8, ptr %19, i64 8
  %21 = load ptr, ptr %20, align 8
  tail call void %21(ptr noundef nonnull align 8 dereferenceable(192) %16) #19
  br label %22

22:                                               ; preds = %18, %14
  %23 = getelementptr inbounds nuw i8, ptr %0, i64 48
  %24 = load ptr, ptr %23, align 8, !tbaa !51
  %25 = icmp eq ptr %24, null
  br i1 %25, label %30, label %26

26:                                               ; preds = %22
  %27 = load ptr, ptr %24, align 8, !tbaa !15
  %28 = getelementptr inbounds nuw i8, ptr %27, i64 8
  %29 = load ptr, ptr %28, align 8
  tail call void %29(ptr noundef nonnull align 8 dereferenceable(192) %24) #19
  br label %30

30:                                               ; preds = %26, %22
  %31 = getelementptr inbounds nuw i8, ptr %0, i64 1568
  %32 = load ptr, ptr %31, align 8, !tbaa !52
  %33 = icmp eq ptr %32, null
  br i1 %33, label %38, label %34

34:                                               ; preds = %30
  %35 = load ptr, ptr %32, align 8, !tbaa !15
  %36 = getelementptr inbounds nuw i8, ptr %35, i64 8
  %37 = load ptr, ptr %36, align 8
  tail call void %37(ptr noundef nonnull align 8 dereferenceable(64) %32) #19
  br label %38

38:                                               ; preds = %34, %30
  %39 = getelementptr inbounds nuw i8, ptr %0, i64 1576
  %40 = load ptr, ptr %39, align 8, !tbaa !53
  %41 = icmp eq ptr %40, null
  br i1 %41, label %46, label %42

42:                                               ; preds = %38
  %43 = load ptr, ptr %40, align 8, !tbaa !15
  %44 = getelementptr inbounds nuw i8, ptr %43, i64 8
  %45 = load ptr, ptr %44, align 8
  tail call void %45(ptr noundef nonnull align 8 dereferenceable(64) %40) #19
  br label %46

46:                                               ; preds = %42, %38
  %47 = getelementptr inbounds nuw i8, ptr %0, i64 1584
  %48 = load ptr, ptr %47, align 8, !tbaa !54
  %49 = icmp eq ptr %48, null
  br i1 %49, label %.preheader, label %50

50:                                               ; preds = %46
  %51 = load ptr, ptr %48, align 8, !tbaa !15
  %52 = getelementptr inbounds nuw i8, ptr %51, i64 8
  %53 = load ptr, ptr %52, align 8
  tail call void %53(ptr noundef nonnull align 8 dereferenceable(64) %48) #19
  br label %.preheader

.preheader:                                       ; preds = %50, %46
  br label %54

54:                                               ; preds = %.preheader, %54
  %.idx = phi i64 [ %.add, %54 ], [ 1568, %.preheader ]
  %.add = add nsw i64 %.idx, -136
  %.ptr7 = getelementptr inbounds i8, ptr %0, i64 %.add
  %55 = getelementptr inbounds nuw i8, ptr %.ptr7, i64 64
  tail call void @_ZN6icu_7713UnicodeStringD1Ev(ptr noundef nonnull align 8 dereferenceable(64) %55) #19
  tail call void @_ZN6icu_7713UnicodeStringD1Ev(ptr noundef nonnull align 8 dereferenceable(129) %.ptr7) #19
  %56 = icmp eq i64 %.add, 344
  br i1 %56, label %57, label %54

57:                                               ; preds = %54
  %58 = getelementptr inbounds nuw i8, ptr %0, i64 280
  tail call void @_ZN6icu_7713UnicodeStringD1Ev(ptr noundef nonnull align 8 dereferenceable(64) %58) #19
  %59 = getelementptr inbounds nuw i8, ptr %0, i64 56
  tail call void @_ZN6icu_776LocaleD1Ev(ptr noundef nonnull align 8 dereferenceable(217) %59) #19
  tail call void @_ZN6icu_776FormatD2Ev(ptr noundef nonnull align 8 dereferenceable(24) %0) #19
  ret void
}